target datalayout = "e-m:e-p270:32:32-p271:32:32-p272:64:64-i64:64-i128:128-f80:128-n8:16:32:64-S128"
target triple = "x86_64-unknown-linux-gnu"

%"class.node::Histogram" = type { %"class.node::MemoryRetainer", %"class.std::unique_ptr", i64, i64, i64, %"class.node::MutexBase" }
%"class.node::MemoryRetainer" = type { ptr }
%"class.std::unique_ptr" = type { %"struct.std::__uniq_ptr_data" }
%"struct.std::__uniq_ptr_data" = type { %"class.std::__uniq_ptr_impl" }
%"class.std::__uniq_ptr_impl" = type { %"class.std::tuple" }
%"class.std::tuple" = type { %"struct.std::_Tuple_impl" }
%"struct.std::_Tuple_impl" = type { %"struct.std::_Head_base.1" }
%"struct.std::_Head_base.1" = type { ptr }
%"class.node::MutexBase" = type { %union.pthread_mutex_t }
%union.pthread_mutex_t = type { %struct.__pthread_mutex_s }
%struct.__pthread_mutex_s = type { i32, i32, i32, i32, i32, i16, i16, %struct.__pthread_internal_list }
%struct.__pthread_internal_list = type { ptr, ptr }
%"class.node::MutexBase<node::LibuvMutexTraits>::ScopedLock" = type { ptr }
%"class.node::HistogramImpl" = type { %"class.std::shared_ptr" }
%"class.std::shared_ptr" = type { %"class.std::__shared_ptr" }
%"class.std::__shared_ptr" = type { ptr, %"class.std::__shared_count" }
%"class.std::__shared_count" = type { ptr }
%"class.v8::IndirectHandleBase" = type { ptr }
%struct.uv_timer_s = type { ptr, ptr, i32, ptr, %struct.uv__queue, %union.anon, ptr, i32, ptr, [3 x ptr], i64, i64, i64 }
%struct.uv__queue = type { ptr, ptr }
%union.anon = type { [4 x ptr] }
%"class.node::ListNode" = type { ptr, ptr }
%"class.std::_Function_base" = type { %"union.std::_Any_data", ptr }
%"union.std::_Any_data" = type { %"union.std::_Nocopy_types" }
%"union.std::_Nocopy_types" = type { { i64, i64 } }
%"class.node::IntervalHistogram" = type { %"class.node::HandleWrap", %"class.node::HistogramImpl", i8, i32, %"class.std::function.384", %struct.uv_timer_s }
%"class.node::HandleWrap" = type { %"class.node::AsyncWrap", i32, %"class.node::ListNode", ptr }
%"class.node::AsyncWrap" = type { %"class.node::BaseObject", i32, i8, double, double }
%"class.node::BaseObject" = type { %"class.node::MemoryRetainer", %"class.v8::Global", ptr, ptr }
%"class.v8::Global" = type { %"class.v8::PersistentBase" }
%"class.v8::PersistentBase" = type { %"class.v8::IndirectHandleBase" }
%"class.std::function.384" = type { %"class.std::_Function_base", ptr }

; Function Attrs: mustprogress nounwind uwtable
define linkonce_odr dso_local noundef nonnull align 8 dereferenceable(8) ptr @_ZNSt10_Head_baseILm0EP13hdr_histogramLb0EE7_M_headERKS2_(ptr noundef nonnull align 8 dereferenceable(8) %__b) #4 comdat align 2 {
entry:
  %__b.addr = alloca ptr, align 8
  store ptr %__b, ptr %__b.addr, align 8
  %0 = load ptr, ptr %__b.addr, align 8
  %_M_head_impl = getelementptr inbounds %"struct.std::_Head_base.1", ptr %0, i32 0, i32 0
  ret ptr %_M_head_impl
}

; Function Attrs: mustprogress nounwind uwtable
define linkonce_odr dso_local noundef nonnull align 8 dereferenceable(8) ptr @_ZNSt11_Tuple_implILm0EJP13hdr_histogramN4node15FunctionDeleterIS0_XadL_Z9hdr_closeEEEEEE7_M_headERKS5_(ptr noundef nonnull align 8 dereferenceable(8) %__t) #4 comdat align 2 {
entry:
  %__t.addr = alloca ptr, align 8
  store ptr %__t, ptr %__t.addr, align 8
  %0 = load ptr, ptr %__t.addr, align 8
  %call = call noundef nonnull align 8 dereferenceable(8) ptr @_ZNSt10_Head_baseILm0EP13hdr_histogramLb0EE7_M_headERKS2_(ptr noundef nonnull align 8 dereferenceable(8) %0) #3
  ret ptr %call
}

; Function Attrs: mustprogress nounwind uwtable
define linkonce_odr dso_local noundef nonnull align 8 dereferenceable(8) ptr @_ZSt12__get_helperILm0EP13hdr_histogramJN4node15FunctionDeleterIS0_XadL_Z9hdr_closeEEEEEERKT0_RKSt11_Tuple_implIXT_EJS5_DpT1_EE(ptr noundef nonnull align 8 dereferenceable(8) %__t) #4 comdat {
entry:
  %__t.addr = alloca ptr, align 8
  store ptr %__t, ptr %__t.addr, align 8
  %0 = load ptr, ptr %__t.addr, align 8
  %call = call noundef nonnull align 8 dereferenceable(8) ptr @_ZNSt11_Tuple_implILm0EJP13hdr_histogramN4node15FunctionDeleterIS0_XadL_Z9hdr_closeEEEEEE7_M_headERKS5_(ptr noundef nonnull align 8 dereferenceable(8) %0) #3
  ret ptr %call
}

; Function Attrs: mustprogress nounwind uwtable
define linkonce_odr dso_local noundef nonnull align 8 dereferenceable(8) ptr @_ZSt3getILm0EJP13hdr_histogramN4node15FunctionDeleterIS0_XadL_Z9hdr_closeEEEEEERKNSt13tuple_elementIXT_ESt5tupleIJDpT0_EEE4typeERKS9_(ptr noundef nonnull align 8 dereferenceable(8) %__t) #4 comdat {
entry:
  %__t.addr = alloca ptr, align 8
  store ptr %__t, ptr %__t.addr, align 8
  %0 = load ptr, ptr %__t.addr, align 8
  %call = call noundef nonnull align 8 dereferenceable(8) ptr @_ZSt12__get_helperILm0EP13hdr_histogramJN4node15FunctionDeleterIS0_XadL_Z9hdr_closeEEEEEERKT0_RKSt11_Tuple_implIXT_EJS5_DpT1_EE(ptr noundef nonnull align 8 dereferenceable(8) %0) #3
  ret ptr %call
}

; Function Attrs: mustprogress nounwind uwtable
define linkonce_odr dso_local void @_ZN4node16LibuvMutexTraits12mutex_unlockEP15pthread_mutex_t(ptr noundef %mutex) #4 comdat align 2 {
entry:
  %mutex.addr = alloca ptr, align 8
  store ptr %mutex, ptr %mutex.addr, align 8
  %0 = load ptr, ptr %mutex.addr, align 8
  call void @uv_mutex_unlock(ptr noundef %0)
  ret void
}

; Function Attrs: mustprogress nounwind uwtable
define linkonce_odr dso_local noundef ptr @_ZNKSt15__uniq_ptr_implI13hdr_histogramN4node15FunctionDeleterIS0_XadL_Z9hdr_closeEEEEE6_M_ptrEv(ptr noundef nonnull align 8 dereferenceable(8) %this) #4 comdat align 2 {
entry:
  %this.addr = alloca ptr, align 8
  store ptr %this, ptr %this.addr, align 8
  %this1 = load ptr, ptr %this.addr, align 8
  %_M_t = getelementptr inbounds %"class.std::__uniq_ptr_impl", ptr %this1, i32 0, i32 0
  %call = call noundef nonnull align 8 dereferenceable(8) ptr @_ZSt3getILm0EJP13hdr_histogramN4node15FunctionDeleterIS0_XadL_Z9hdr_closeEEEEEERKNSt13tuple_elementIXT_ESt5tupleIJDpT0_EEE4typeERKS9_(ptr noundef nonnull align 8 dereferenceable(8) %_M_t) #3
  %0 = load ptr, ptr %call, align 8
  ret ptr %0
}

; Function Attrs: mustprogress nounwind uwtable
define linkonce_odr dso_local void @_ZN4node16LibuvMutexTraits10mutex_lockEP15pthread_mutex_t(ptr noundef %mutex) #4 comdat align 2 {
entry:
  %mutex.addr = alloca ptr, align 8
  store ptr %mutex, ptr %mutex.addr, align 8
  %0 = load ptr, ptr %mutex.addr, align 8
  call void @uv_mutex_lock(ptr noundef %0)
  ret void
}

; Function Attrs: mustprogress nounwind uwtable
define linkonce_odr dso_local noundef ptr @_ZNKSt12__shared_ptrIN4node9HistogramELN9__gnu_cxx12_Lock_policyE2EE3getEv(ptr noundef nonnull align 8 dereferenceable(16) %this) #4 comdat align 2 {
entry:
  %this.addr = alloca ptr, align 8
  store ptr %this, ptr %this.addr, align 8
  %this1 = load ptr, ptr %this.addr, align 8
  %_M_ptr = getelementptr inbounds %"class.std::__shared_ptr", ptr %this1, i32 0, i32 0
  %0 = load ptr, ptr %_M_ptr, align 8
  ret ptr %0
}

; Function Attrs: mustprogress nounwind uwtable
define linkonce_odr dso_local void @_ZN4node9MutexBaseINS_16LibuvMutexTraitsEE10ScopedLockD2Ev(ptr noundef nonnull align 8 dereferenceable(8) %this) unnamed_addr #4 comdat align 2 {
entry:
  %this.addr = alloca ptr, align 8
  store ptr %this, ptr %this.addr, align 8
  %this1 = load ptr, ptr %this.addr, align 8
  %mutex_ = getelementptr inbounds %"class.node::MutexBase<node::LibuvMutexTraits>::ScopedLock", ptr %this1, i32 0, i32 0
  %0 = load ptr, ptr %mutex_, align 8
  %mutex_2 = getelementptr inbounds %"class.node::MutexBase", ptr %0, i32 0, i32 0
  call void @_ZN4node16LibuvMutexTraits12mutex_unlockEP15pthread_mutex_t(ptr noundef %mutex_2)
  ret void
}

; Function Attrs: mustprogress nounwind uwtable
define linkonce_odr dso_local noundef ptr @_ZNKSt10unique_ptrI13hdr_histogramN4node15FunctionDeleterIS0_XadL_Z9hdr_closeEEEEE3getEv(ptr noundef nonnull align 8 dereferenceable(8) %this) #4 comdat align 2 {
entry:
  %this.addr = alloca ptr, align 8
  store ptr %this, ptr %this.addr, align 8
  %this1 = load ptr, ptr %this.addr, align 8
  %_M_t = getelementptr inbounds %"class.std::unique_ptr", ptr %this1, i32 0, i32 0
  %call = call noundef ptr @_ZNKSt15__uniq_ptr_implI13hdr_histogramN4node15FunctionDeleterIS0_XadL_Z9hdr_closeEEEEE6_M_ptrEv(ptr noundef nonnull align 8 dereferenceable(8) %_M_t) #3
  ret ptr %call
}

; Function Attrs: mustprogress nounwind uwtable
define linkonce_odr dso_local void @_ZN4node9MutexBaseINS_16LibuvMutexTraitsEE10ScopedLockC2ERKS2_(ptr noundef nonnull align 8 dereferenceable(8) %this, ptr noundef nonnull align 8 dereferenceable(40) %mutex) unnamed_addr #4 comdat align 2 {
entry:
  %this.addr = alloca ptr, align 8
  %mutex.addr = alloca ptr, align 8
  store ptr %this, ptr %this.addr, align 8
  store ptr %mutex, ptr %mutex.addr, align 8
  %this1 = load ptr, ptr %this.addr, align 8
  %mutex_ = getelementptr inbounds %"class.node::MutexBase<node::LibuvMutexTraits>::ScopedLock", ptr %this1, i32 0, i32 0
  %0 = load ptr, ptr %mutex.addr, align 8
  store ptr %0, ptr %mutex_, align 8
  %mutex_2 = getelementptr inbounds %"class.node::MutexBase<node::LibuvMutexTraits>::ScopedLock", ptr %this1, i32 0, i32 0
  %1 = load ptr, ptr %mutex_2, align 8
  %mutex_3 = getelementptr inbounds %"class.node::MutexBase", ptr %1, i32 0, i32 0
  call void @_ZN4node16LibuvMutexTraits10mutex_lockEP15pthread_mutex_t(ptr noundef %mutex_3)
  ret void
}

; Function Attrs: mustprogress nounwind uwtable
define linkonce_odr dso_local noundef ptr @_ZNKSt19__shared_ptr_accessIN4node9HistogramELN9__gnu_cxx12_Lock_policyE2ELb0ELb0EE6_M_getEv(ptr noundef nonnull align 1 dereferenceable(1) %this) #4 comdat align 2 {
entry:
  %this.addr = alloca ptr, align 8
  store ptr %this, ptr %this.addr, align 8
  %this1 = load ptr, ptr %this.addr, align 8
  %call = call noundef ptr @_ZNKSt12__shared_ptrIN4node9HistogramELN9__gnu_cxx12_Lock_policyE2EE3getEv(ptr noundef nonnull align 8 dereferenceable(16) %this1) #3
  ret ptr %call
}

; Function Attrs: mustprogress nounwind uwtable
define linkonce_odr dso_local void @_ZN4node9Histogram5ResetEv(ptr noundef nonnull align 8 dereferenceable(80) %this) #4 comdat align 2 {
entry:
  %this.addr = alloca ptr, align 8
  %lock = alloca %"class.node::MutexBase<node::LibuvMutexTraits>::ScopedLock", align 8
  store ptr %this, ptr %this.addr, align 8
  %this1 = load ptr, ptr %this.addr, align 8
  %mutex_ = getelementptr inbounds %"class.node::Histogram", ptr %this1, i32 0, i32 5
  call void @_ZN4node9MutexBaseINS_16LibuvMutexTraitsEE10ScopedLockC2ERKS2_(ptr noundef nonnull align 8 dereferenceable(8) %lock, ptr noundef nonnull align 8 dereferenceable(40) %mutex_)
  %histogram_ = getelementptr inbounds %"class.node::Histogram", ptr %this1, i32 0, i32 1
  %call = call noundef ptr @_ZNKSt10unique_ptrI13hdr_histogramN4node15FunctionDeleterIS0_XadL_Z9hdr_closeEEEEE3getEv(ptr noundef nonnull align 8 dereferenceable(8) %histogram_) #3
  call void @hdr_reset(ptr noundef %call)
  %exceeds_ = getelementptr inbounds %"class.node::Histogram", ptr %this1, i32 0, i32 3
  store i64 0, ptr %exceeds_, align 8
  %count_ = getelementptr inbounds %"class.node::Histogram", ptr %this1, i32 0, i32 4
  store i64 0, ptr %count_, align 8
  %prev_ = getelementptr inbounds %"class.node::Histogram", ptr %this1, i32 0, i32 2
  store i64 0, ptr %prev_, align 8
  call void @_ZN4node9MutexBaseINS_16LibuvMutexTraitsEE10ScopedLockD2Ev(ptr noundef nonnull align 8 dereferenceable(8) %lock) #3
  ret void
}

; Function Attrs: mustprogress nounwind uwtable
define linkonce_odr dso_local noundef ptr @_ZNKSt19__shared_ptr_accessIN4node9HistogramELN9__gnu_cxx12_Lock_policyE2ELb0ELb0EEptEv(ptr noundef nonnull align 1 dereferenceable(1) %this) #4 comdat align 2 {
entry:
  %this.addr = alloca ptr, align 8
  store ptr %this, ptr %this.addr, align 8
  %this1 = load ptr, ptr %this.addr, align 8
  %call = call noundef ptr @_ZNKSt19__shared_ptr_accessIN4node9HistogramELN9__gnu_cxx12_Lock_policyE2ELb0ELb0EE6_M_getEv(ptr noundef nonnull align 1 dereferenceable(1) %this1) #3
  ret ptr %call
}

; Function Attrs: mustprogress nounwind uwtable
define linkonce_odr dso_local noundef nonnull align 8 dereferenceable(16) ptr @_ZNK4node13HistogramImpl9histogramEv(ptr noundef nonnull align 8 dereferenceable(16) %this) #4 comdat align 2 {
entry:
  %this.addr = alloca ptr, align 8
  store ptr %this, ptr %this.addr, align 8
  %this1 = load ptr, ptr %this.addr, align 8
  %histogram_ = getelementptr inbounds %"class.node::HistogramImpl", ptr %this1, i32 0, i32 0
  ret ptr %histogram_
}

; Function Attrs: mustprogress nounwind uwtable
define linkonce_odr dso_local noundef zeroext i1 @_ZNK4node10HandleWrap15IsHandleClosingEv(ptr noundef nonnull align 8 dereferenceable(88) %this) #4 comdat align 2 {
entry:
  %this.addr = alloca ptr, align 8
  store ptr %this, ptr %this.addr, align 8
  %this1 = load ptr, ptr %this.addr, align 8
  %state_ = getelementptr inbounds %"class.node::HandleWrap", ptr %this1, i32 0, i32 1
  %0 = load i32, ptr %state_, align 8
  %cmp = icmp eq i32 %0, 1
  br i1 %cmp, label %lor.end, label %lor.rhs

lor.rhs:                                          ; preds = %entry
  %state_2 = getelementptr inbounds %"class.node::HandleWrap", ptr %this1, i32 0, i32 1
  %1 = load i32, ptr %state_2, align 8
  %cmp3 = icmp eq i32 %1, 2
  br label %lor.end

lor.end:                                          ; preds = %lor.rhs, %entry
  %2 = phi i1 [ true, %entry ], [ %cmp3, %lor.rhs ]
  ret i1 %2
}

; Function Attrs: mustprogress nounwind uwtable
define dso_local void @_ZN4node17IntervalHistogram7OnStartENS0_10StartFlagsE(ptr noundef nonnull align 8 dereferenceable(296) %this, i32 noundef %flags) #4 align 2 {
entry:
  %this.addr = alloca ptr, align 8
  %flags.addr = alloca i32, align 4
  store ptr %this, ptr %this.addr, align 8
  store i32 %flags, ptr %flags.addr, align 4
  %this1 = load ptr, ptr %this.addr, align 8
  %enabled_ = getelementptr inbounds %"class.node::IntervalHistogram", ptr %this1, i32 0, i32 2
  %0 = load i8, ptr %enabled_, align 8
  %tobool = trunc i8 %0 to i1
  br i1 %tobool, label %if.then, label %lor.lhs.false

lor.lhs.false:                                    ; preds = %entry
  %call = call noundef zeroext i1 @_ZNK4node10HandleWrap15IsHandleClosingEv(ptr noundef nonnull align 8 dereferenceable(88) %this1)
  br i1 %call, label %if.then, label %if.end

if.then:                                          ; preds = %lor.lhs.false, %entry
  br label %return

if.end:                                           ; preds = %lor.lhs.false
  %enabled_2 = getelementptr inbounds %"class.node::IntervalHistogram", ptr %this1, i32 0, i32 2
  store i8 1, ptr %enabled_2, align 8
  %1 = load i32, ptr %flags.addr, align 4
  %cmp = icmp eq i32 %1, 1
  br i1 %cmp, label %if.then3, label %if.end6

if.then3:                                         ; preds = %if.end
  %add.ptr = getelementptr inbounds i8, ptr %this1, i64 88
  %call4 = call noundef nonnull align 8 dereferenceable(16) ptr @_ZNK4node13HistogramImpl9histogramEv(ptr noundef nonnull align 8 dereferenceable(16) %add.ptr)
  %call5 = call noundef ptr @_ZNKSt19__shared_ptr_accessIN4node9HistogramELN9__gnu_cxx12_Lock_policyE2ELb0ELb0EEptEv(ptr noundef nonnull align 1 dereferenceable(1) %call4) #3
  call void @_ZN4node9Histogram5ResetEv(ptr noundef nonnull align 8 dereferenceable(80) %call5)
  br label %if.end6

if.end6:                                          ; preds = %if.then3, %if.end
  %timer_ = getelementptr inbounds %"class.node::IntervalHistogram", ptr %this1, i32 0, i32 5
  %interval_ = getelementptr inbounds %"class.node::IntervalHistogram", ptr %this1, i32 0, i32 3
  %2 = load i32, ptr %interval_, align 4
  %conv = sext i32 %2 to i64
  %interval_7 = getelementptr inbounds %"class.node::IntervalHistogram", ptr %this1, i32 0, i32 3
  %3 = load i32, ptr %interval_7, align 4
  %conv8 = sext i32 %3 to i64
  %call9 = call i32 @uv_timer_start(ptr noundef %timer_, ptr noundef @_ZN4node17IntervalHistogram7TimerCBEP10uv_timer_s, i64 noundef %conv, i64 noundef %conv8)
  %timer_10 = getelementptr inbounds %"class.node::IntervalHistogram", ptr %this1, i32 0, i32 5
  call void @uv_unref(ptr noundef %timer_10)
  br label %return

return:                                           ; preds = %if.end6, %if.then
  ret void
}