; Function Attrs: mustprogress nounwind uwtable
define dso_local void @_ZN4node17IntervalHistogram7OnStartENS0_10StartFlagsE(ptr noundef nonnull align 8 dereferenceable(296) %this, i32 noundef %flags) local_unnamed_addr #3 align 2 {
entry:
  %enabled_ = getelementptr inbounds i8, ptr %this, i64 104
  %0 = load i8, ptr %enabled_, align 8
  %1 = and i8 %0, 1
  %tobool.not = icmp eq i8 %1, 0
  br i1 %tobool.not, label %lor.lhs.false, label %return

lor.lhs.false:                                    ; preds = %entry
  %state_.i = getelementptr inbounds i8, ptr %this, i64 56
  %2 = load i32, ptr %state_.i, align 8
  %3 = add i32 %2, -1
  %spec.select.i = icmp ult i32 %3, 2
  br i1 %spec.select.i, label %return, label %if.end

if.end:                                           ; preds = %lor.lhs.false
  store i8 1, ptr %enabled_, align 8
  %cmp = icmp eq i32 %flags, 1
  br i1 %cmp, label %if.then3, label %if.end6

if.then3:                                         ; preds = %if.end
  %add.ptr = getelementptr inbounds i8, ptr %this, i64 88
  %4 = load ptr, ptr %add.ptr, align 8
  %mutex_.i = getelementptr inbounds i8, ptr %4, i64 40
  tail call void @uv_mutex_lock(ptr noundef nonnull %mutex_.i) #15
  %histogram_.i = getelementptr inbounds i8, ptr %4, i64 8
  %5 = load ptr, ptr %histogram_.i, align 8
  tail call void @hdr_reset(ptr noundef %5) #15
  %prev_.i = getelementptr inbounds i8, ptr %4, i64 16
  tail call void @llvm.memset.p0.i64(ptr noundef nonnull align 8 dereferenceable(24) %prev_.i, i8 0, i64 24, i1 false)
  tail call void @uv_mutex_unlock(ptr noundef nonnull %mutex_.i) #15
  br label %if.end6

if.end6:                                          ; preds = %if.then3, %if.end
  %timer_ = getelementptr inbounds i8, ptr %this, i64 144
  %interval_ = getelementptr inbounds i8, ptr %this, i64 108
  %6 = load i32, ptr %interval_, align 4
  %conv = sext i32 %6 to i64
  %call9 = tail call i32 @uv_timer_start(ptr noundef nonnull %timer_, ptr noundef nonnull @_ZN4node17IntervalHistogram7TimerCBEP10uv_timer_s, i64 noundef %conv, i64 noundef %conv) #15
  tail call void @uv_unref(ptr noundef nonnull %timer_) #15
  br label %return

return:                                           ; preds = %entry, %lor.lhs.false, %if.end6
  ret void
}